; Function Attrs: mustprogress uwtable
define dso_local noundef zeroext i1 @_ZN7DepsLog12OpenForWriteERKNSt7__cxx1112basic_stringIcSt11char_traitsIcESaIcEEEPS5_(ptr noundef nonnull align 8 dereferenceable(96) %0, ptr noundef nonnull align 8 dereferenceable(32) %1, ptr noundef %2) local_unnamed_addr #1 align 2 {
  %4 = load i8, ptr %0, align 8, !tbaa !33, !range !34, !noundef !35
  %5 = trunc nuw i8 %4 to i1
  br i1 %5, label %6, label %8

6:                                                ; preds = %3
  %7 = tail call noundef zeroext i1 @_ZN7DepsLog9RecompactERKNSt7__cxx1112basic_stringIcSt11char_traitsIcESaIcEEEPS5_(ptr noundef nonnull align 8 dereferenceable(96) %0, ptr noundef nonnull align 8 dereferenceable(32) %1, ptr noundef %2)
  br i1 %7, label %8, label %10

8:                                                ; preds = %6, %3
  %9 = getelementptr inbounds nuw i8, ptr %0, i64 16
  tail call void @_ZNSt7__cxx1112basic_stringIcSt11char_traitsIcESaIcEE9_M_assignERKS4_(ptr noundef nonnull align 8 dereferenceable(32) %9, ptr noundef nonnull align 8 dereferenceable(32) %1)
  br label %10

10:                                               ; preds = %6, %8
  %.0 = phi i1 [ true, %8 ], [ false, %6 ]
  ret i1 %.0
}